; Function Attrs: mustprogress nounwind uwtable
define dso_local void @_ZN5clang14JSONNodeDumper19VisitDeprecatedAttrEPKNS_14DeprecatedAttrE(ptr noundef nonnull align 8 dereferenceable(1312) %0, ptr nocapture noundef readonly %1) local_unnamed_addr #0 align 2 {
  %3 = alloca %"class.llvm::json::Value", align 8
  %4 = alloca %"class.llvm::json::Value", align 8
  %5 = getelementptr inbounds nuw i8, ptr %1, i64 36
  %6 = load i32, ptr %5, align 4
  %7 = icmp eq i32 %6, 0
  br i1 %7, label %13, label %8

8:                                                ; preds = %2
  %9 = zext i32 %6 to i64
  %10 = getelementptr inbounds nuw i8, ptr %1, i64 40
  %11 = load ptr, ptr %10, align 8
  %12 = getelementptr inbounds nuw i8, ptr %0, i64 1048
  call void @_ZN4llvm4json5ValueC2ENS_9StringRefE(ptr noundef nonnull align 8 dereferenceable(40) %3, ptr %11, i64 %9)
  call void @_ZN4llvm4json7OStream14attributeBeginENS_9StringRefE(ptr noundef nonnull align 8 dereferenceable(176) %12, ptr nonnull @.str.516, i64 7) #20
  call void @_ZN4llvm4json7OStream5valueERKNS0_5ValueE(ptr noundef nonnull align 8 dereferenceable(176) %12, ptr noundef nonnull align 8 dereferenceable(40) %3) #20
  call void @_ZN4llvm4json7OStream12attributeEndEv(ptr noundef nonnull align 8 dereferenceable(176) %12) #20
  call void @_ZN4llvm4json5Value7destroyEv(ptr noundef nonnull align 8 dereferenceable(40) %3) #20
  br label %13

13:                                               ; preds = %8, %2
  %14 = getelementptr inbounds nuw i8, ptr %1, i64 48
  %15 = load i32, ptr %14, align 8
  %16 = icmp eq i32 %15, 0
  br i1 %16, label %22, label %17

17:                                               ; preds = %13
  %18 = zext i32 %15 to i64
  %19 = getelementptr inbounds nuw i8, ptr %1, i64 56
  %20 = load ptr, ptr %19, align 8
  %21 = getelementptr inbounds nuw i8, ptr %0, i64 1048
  call void @_ZN4llvm4json5ValueC2ENS_9StringRefE(ptr noundef nonnull align 8 dereferenceable(40) %4, ptr %20, i64 %18)
  call void @_ZN4llvm4json7OStream14attributeBeginENS_9StringRefE(ptr noundef nonnull align 8 dereferenceable(176) %21, ptr nonnull @.str.517, i64 11) #20
  call void @_ZN4llvm4json7OStream5valueERKNS0_5ValueE(ptr noundef nonnull align 8 dereferenceable(176) %21, ptr noundef nonnull align 8 dereferenceable(40) %4) #20
  call void @_ZN4llvm4json7OStream12attributeEndEv(ptr noundef nonnull align 8 dereferenceable(176) %21) #20
  call void @_ZN4llvm4json5Value7destroyEv(ptr noundef nonnull align 8 dereferenceable(40) %4) #20
  br label %22

22:                                               ; preds = %17, %13
  ret void
}